; Function Attrs: nounwind sspstrong uwtable
define nonnull ptr @GetPKeyPtr(i64 noundef %0) local_unnamed_addr #0 {
  %2 = tail call ptr @rb_check_typeddata(i64 noundef %0, ptr noundef nonnull @ossl_evp_pkey_type) #8
  %.not = icmp eq ptr %2, null
  br i1 %.not, label %3, label %5

3:                                                ; preds = %1
  %4 = load i64, ptr @rb_eRuntimeError, align 8, !tbaa !10
  tail call void (i64, ptr, ...) @rb_raise(i64 noundef %4, ptr noundef nonnull @.str.4) #9
  unreachable

5:                                                ; preds = %1
  ret ptr %2
}